; Function Attrs: nounwind uwtable
define hidden noalias noundef ptr @dfvm_value_new_fvalue(ptr noundef %0) local_unnamed_addr #2 {
  %2 = tail call noalias noundef dereferenceable_or_null(24) ptr @g_malloc_n(i64 noundef 1, i64 noundef 24) #12
  store i32 1, ptr %2, align 8
  %3 = getelementptr inbounds nuw i8, ptr %2, i64 16
  store i32 0, ptr %3, align 8
  %4 = tail call ptr @g_ptr_array_new_full(i32 noundef 1, ptr noundef nonnull @fvalue_free) #11
  %5 = getelementptr inbounds nuw i8, ptr %2, i64 8
  store ptr %4, ptr %5, align 8
  tail call void @g_ptr_array_add(ptr noundef %4, ptr noundef %0) #11
  ret ptr %2
}